Certificate:
    Data:
        Version: 3 (0x2)
        Serial Number:
            42:62:8a:4e:52:95:f7:cf:4a:ed:b3:c5:e0:c6:ca:bc
        Signature Algorithm: sha256WithRSAEncryption
        Issuer: CN=1852992
        Validity
            Not Before: Dec 19 16:41:46 2024 GMT
            Not After : Mar 24 16:41:46 2027 GMT
        Subject: CN=vpn_server
        Subject Public Key Info:
            Public Key Algorithm: rsaEncryption
                Public-Key: (2048 bit)
                Modulus:
                    00:b5:c8:95:30:fd:d4:43:2f:70:54:01:88:ed:a3:
                    bc:59:29:ef:7a:5e:ce:4f:c2:d7:f5:1b:1f:6d:13:
                    f9:bd:dc:51:53:19:44:5a:a5:ba:24:1a:c4:3c:16:
                    05:33:c3:62:07:68:a0:5a:29:b8:c5:38:1e:e7:b0:
                    3e:e0:23:f7:6f:a3:4f:5c:5d:c1:1e:50:54:a1:a9:
                    df:82:ed:32:eb:6b:83:3a:09:b2:74:2c:54:85:52:
                    69:60:8b:66:08:dd:18:d2:50:e8:18:6b:41:df:88:
                    22:05:2b:87:74:a2:dd:0a:18:17:00:b5:51:20:68:
                    f3:fe:3f:4c:50:0a:e4:61:6b:28:60:50:31:be:58:
                    e6:1f:cd:37:fe:b8:5f:d8:fa:53:2b:3c:74:a9:7f:
                    bf:a7:4d:6c:e4:35:1b:7c:45:e5:71:7f:67:7a:0d:
                    24:c0:b0:ad:c5:c2:f2:28:29:56:b1:2d:4b:bf:d8:
                    1a:c3:c5:39:18:87:e3:38:3d:9b:c9:d0:3b:fd:bc:
                    d0:66:f7:43:d0:6e:ac:83:06:01:ed:57:63:53:b5:
                    36:b9:e3:2c:73:74:04:67:fc:9b:69:e9:b8:d2:3e:
                    ab:ac:fc:b9:1f:d4:60:48:d9:e2:b3:25:dc:76:6f:
                    68:48:7b:c3:bc:ee:6c:e9:a3:e1:f4:41:b4:f8:59:
                    4a:61
                Exponent: 65537 (0x10001)
        X509v3 extensions:
            X509v3 Basic Constraints: 
                CA:FALSE
            X509v3 Subject Key Identifier: 
                9A:C8:DE:07:6D:97:44:98:49:8D:F9:09:63:21:BA:7A:1B:5F:29:36
            X509v3 Authority Key Identifier: 
                keyid:F8:8C:9D:9B:80:8A:45:24:4A:BF:77:42:7F:75:2F:91:D3:0A:A7:49
                DirName:/CN=1852992
                serial:61:36:07:C7:93:16:B1:C4:71:E6:CC:58:3C:CA:61:69:15:00:00:B0
            X509v3 Key Usage: 
                Digital Signature, Key Encipherment
            X509v3 Extended Key Usage: 
                TLS Web Server Authentication
    Signature Algorithm: sha256WithRSAEncryption
    Signature Value:
        8e:bf:3e:e1:6d:43:df:5c:35:f9:ed:a8:e1:58:8e:25:94:00:
        b5:86:86:3d:05:8a:b6:6f:bf:17:28:9b:ef:f3:8a:4e:fa:8b:
        1b:a1:37:b6:6d:6d:41:c9:21:e5:4a:10:f0:32:e4:60:d0:1b:
        ef:7f:56:d1:e3:8f:21:c3:d0:a9:eb:43:00:54:90:e5:67:d4:
        57:3a:9b:ba:ff:bb:1b:9b:ec:04:7e:e4:86:c9:62:2e:e4:f1:
        cf:f4:d2:c1:49:db:b5:cf:9b:98:9e:2d:0d:82:d3:b4:79:bf:
        81:56:2f:32:2d:64:18:a2:ac:58:6a:36:00:ad:6e:35:e8:28:
        bd:4a:1d:39:95:be:ec:9e:e8:ba:a9:6e:d9:f7:d2:ab:8b:21:
        53:b6:06:43:3a:70:f1:26:be:2d:34:80:ee:df:31:e4:9d:86:
        4c:5c:0c:a9:1a:0e:b1:12:93:e7:d2:64:76:f3:da:48:d7:ac:
        09:cc:96:1a:35:a2:a7:5c:b7:19:75:8d:42:d9:47:85:ec:6f:
        94:c0:38:31:6a:e7:04:d8:6f:7d:94:49:72:cb:8d:df:53:21:
        17:ea:62:b8:ef:85:17:fd:7f:01:da:3a:4e:5f:11:87:06:55:
        79:f1:a2:62:63:87:8c:4e:04:c7:ef:5d:4f:7e:07:d1:3a:0a:
        bd:54:2b:64
-----BEGIN CERTIFICATE-----
MIIDUDCCAjigAwIBAgIQQmKKTlKV989K7bPF4MbKvDANBgkqhkiG9w0BAQsFADAS
MRAwDgYDVQQDDAcxODUyOTkyMB4XDTI0MTIxOTE2NDE0NloXDTI3MDMyNDE2NDE0
NlowFTETMBEGA1UEAwwKdnBuX3NlcnZlcjCCASIwDQYJKoZIhvcNAQEBBQADggEP
ADCCAQoCggEBALXIlTD91EMvcFQBiO2jvFkp73pezk/C1/UbH20T+b3cUVMZRFql
uiQaxDwWBTPDYgdooFopuMU4HuewPuAj92+jT1xdwR5QVKGp34LtMutrgzoJsnQs
VIVSaWCLZgjdGNJQ6BhrQd+IIgUrh3Si3QoYFwC1USBo8/4/TFAK5GFrKGBQMb5Y
5h/NN/64X9j6Uys8dKl/v6dNbOQ1G3xF5XF/Z3oNJMCwrcXC8igpVrEtS7/YGsPF
ORiH4zg9m8nQO/280Gb3Q9BurIMGAe1XY1O1NrnjLHN0BGf8m2npuNI+q6z8uR/U
YEjZ4rMl3HZvaEh7w7zubOmj4fRBtPhZSmECAwEAAaOBnjCBmzAJBgNVHRMEAjAA
MB0GA1UdDgQWBBSayN4HbZdEmEmN+QljIbp6G18pNjBNBgNVHSMERjBEgBT4jJ2b
gIpFJEq/d0J/dS+R0wqnSaEWpBQwEjEQMA4GA1UEAwwHMTg1Mjk5MoIUYTYHx5MW
scRx5sxYPMphaRUAALAwCwYDVR0PBAQDAgWgMBMGA1UdJQQMMAoGCCsGAQUFBwMB
MA0GCSqGSIb3DQEBCwUAA4IBAQCOvz7hbUPfXDX57ajhWI4llAC1hoY9BYq2b78X
KJvv84pO+osboTe2bW1BySHlShDwMuRg0Bvvf1bR448hw9Cp60MAVJDlZ9RXOpu6
/7sbm+wEfuSGyWIu5PHP9NLBSdu1z5uYni0NgtO0eb+BVi8yLWQYoqxYajYArW41
6Ci9Sh05lb7snui6qW7Z99KriyFTtgZDOnDxJr4tNIDu3zHknYZMXAypGg6xEpPn
0mR289pI16wJzJYaNaKnXLcZdY1C2UeF7G+UwDgxaucE2G99lElyy43fUyEX6mK4
74UX/X8B2jpOXxGHBlV58aJiY4eMTgTH711PfgfROgq9VCtk
-----END CERTIFICATE-----
