Certificate:
    Data:
        Version: 3 (0x2)
        Serial Number:
            0c:68:df:45:2e:65:37:bd:24:1b:38:d4:dd:63:e4:93
        Signature Algorithm: sha256WithRSAEncryption
        Issuer: CN=1882789
        Validity
            Not Before: Dec 19 21:04:10 2024 GMT
            Not After : Dec  4 21:04:10 2027 GMT
        Subject: CN=vpn_server
        Subject Public Key Info:
            Public Key Algorithm: rsaEncryption
                RSA Public-Key: (2048 bit)
                Modulus:
                    00:b7:56:c8:cf:e8:a5:e4:d1:19:24:58:00:b1:95:
                    92:dc:e4:dc:b0:d4:aa:b3:4c:3b:10:46:c5:fa:0c:
                    a2:5d:77:77:44:3c:b3:93:53:d5:99:7d:af:ed:b2:
                    03:2b:e3:02:3d:86:b3:ea:b3:48:8f:3c:2c:8d:80:
                    7b:9f:cd:01:ae:0a:4b:bd:87:57:5d:c1:b2:63:84:
                    6c:c3:e5:b6:5e:69:6c:64:1e:c0:ee:2c:65:32:fd:
                    52:14:8e:1f:76:40:6a:84:a0:6a:19:c9:82:14:d9:
                    03:24:94:aa:22:e0:5f:8c:69:31:a3:8c:2e:74:e5:
                    4d:d8:d3:37:3d:32:41:bf:e7:e1:36:27:81:7f:b0:
                    23:16:ae:28:96:6e:9b:55:48:58:00:e2:e3:eb:1f:
                    f1:18:87:27:30:47:94:36:4a:58:36:36:79:a7:84:
                    f7:ce:27:a2:13:d3:1d:0e:3d:96:52:b3:65:6c:ce:
                    99:81:5d:4c:dc:2f:88:a0:0c:da:6b:5d:89:47:68:
                    84:56:3b:09:a2:44:85:ac:79:47:32:b2:db:19:02:
                    ce:fb:ef:f3:af:52:54:1e:1c:f8:cd:db:21:66:8a:
                    27:75:fb:e8:0c:73:17:7c:41:a1:0e:f0:7b:d1:22:
                    0e:28:50:3a:5f:3d:d8:e8:d2:dd:8b:41:73:b7:3b:
                    16:1f
                Exponent: 65537 (0x10001)
        X509v3 extensions:
            X509v3 Basic Constraints: 
                CA:FALSE
            X509v3 Subject Key Identifier: 
                F5:2E:1E:77:A3:CE:A8:65:48:C7:45:F3:94:EA:61:EB:C4:FD:C6:61
            X509v3 Authority Key Identifier: 
                keyid:81:4B:78:59:24:B9:A4:47:4D:96:92:E4:D1:0E:37:0A:2B:09:EB:DD
                DirName:/CN=1882789
                serial:32:DC:A5:BE:A3:5B:78:01:42:DB:3F:F1:C6:F1:CA:DF:BF:CD:D9:AE

            X509v3 Extended Key Usage: 
                TLS Web Server Authentication
            X509v3 Key Usage: 
                Digital Signature, Key Encipherment
            X509v3 Subject Alternative Name: 
                DNS:vpn_server
    Signature Algorithm: sha256WithRSAEncryption
         3a:d3:4a:c7:6b:05:cd:e0:95:74:a4:36:d1:92:a2:c5:fc:48:
         6d:42:22:22:81:e7:0f:80:4f:48:11:e7:87:e9:83:c4:d1:68:
         b9:62:bd:0c:c7:2a:bb:6e:59:a6:57:20:6a:7c:f5:d8:71:e8:
         d1:69:26:2a:44:f4:91:a5:ad:9c:c6:48:9f:cb:0f:2a:78:59:
         39:e2:0d:c0:62:e9:09:31:83:29:e0:4f:b6:bd:e9:6d:71:71:
         35:e2:d6:c7:0a:5f:7b:0f:dd:44:89:1c:10:9b:b3:40:0f:ff:
         56:b7:6f:71:e4:96:b2:ed:87:6c:07:41:a3:0f:12:52:fb:04:
         c3:c3:a9:65:26:ef:8d:89:aa:34:d7:37:78:39:b0:66:71:6c:
         e2:b3:fc:51:6a:6b:5b:f9:61:e7:cc:48:ce:b9:2f:7e:ff:3c:
         19:a6:1a:f0:b9:c2:8b:5a:67:5e:a4:84:70:16:f1:b6:b7:60:
         d1:8d:42:9d:9a:7c:4b:17:7a:6d:85:fd:ff:c8:b8:81:e8:91:
         ec:0b:99:d7:d2:1c:50:a3:50:09:7a:d8:c7:d7:5b:b3:5a:06:
         a0:ea:90:9c:14:02:ed:0e:67:c1:c4:4e:94:db:98:79:0a:af:
         a7:d4:c5:b6:02:3f:c4:b1:d7:a9:a7:63:7c:dd:44:fd:ed:c0:
         83:72:2c:ac
-----BEGIN CERTIFICATE-----
MIIDZzCCAk+gAwIBAgIQDGjfRS5lN70kGzjU3WPkkzANBgkqhkiG9w0BAQsFADAS
MRAwDgYDVQQDDAcxODgyNzg5MB4XDTI0MTIxOTIxMDQxMFoXDTI3MTIwNDIxMDQx
MFowFTETMBEGA1UEAwwKdnBuX3NlcnZlcjCCASIwDQYJKoZIhvcNAQEBBQADggEP
ADCCAQoCggEBALdWyM/opeTRGSRYALGVktzk3LDUqrNMOxBGxfoMol13d0Q8s5NT
1Zl9r+2yAyvjAj2Gs+qzSI88LI2Ae5/NAa4KS72HV13BsmOEbMPltl5pbGQewO4s
ZTL9UhSOH3ZAaoSgahnJghTZAySUqiLgX4xpMaOMLnTlTdjTNz0yQb/n4TYngX+w
IxauKJZum1VIWADi4+sf8RiHJzBHlDZKWDY2eaeE984nohPTHQ49llKzZWzOmYFd
TNwviKAM2mtdiUdohFY7CaJEhax5RzKy2xkCzvvv869SVB4c+M3bIWaKJ3X76Axz
F3xBoQ7we9EiDihQOl892OjS3YtBc7c7Fh8CAwEAAaOBtTCBsjAJBgNVHRMEAjAA
MB0GA1UdDgQWBBT1Lh53o86oZUjHRfOU6mHrxP3GYTBNBgNVHSMERjBEgBSBS3hZ
JLmkR02WkuTRDjcKKwnr3aEWpBQwEjEQMA4GA1UEAwwHMTg4Mjc4OYIUMtylvqNb
eAFC2z/xxvHK37/N2a4wEwYDVR0lBAwwCgYIKwYBBQUHAwEwCwYDVR0PBAQDAgWg
MBUGA1UdEQQOMAyCCnZwbl9zZXJ2ZXIwDQYJKoZIhvcNAQELBQADggEBADrTSsdr
Bc3glXSkNtGSosX8SG1CIiKB5w+AT0gR54fpg8TRaLlivQzHKrtuWaZXIGp89dhx
6NFpJipE9JGlrZzGSJ/LDyp4WTniDcBi6QkxgyngT7a96W1xcTXi1scKX3sP3USJ
HBCbs0AP/1a3b3HklrLth2wHQaMPElL7BMPDqWUm742JqjTXN3g5sGZxbOKz/FFq
a1v5YefMSM65L37/PBmmGvC5wotaZ16khHAW8ba3YNGNQp2afEsXem2F/f/IuIHo
kewLmdfSHFCjUAl62MfXW7NaBqDqkJwUAu0OZ8HETpTbmHkKr6fUxbYCP8Sx16mn
Y3zdRP3twINyLKw=
-----END CERTIFICATE-----
