Certificate:
    Data:
        Version: 3 (0x2)
        Serial Number:
            96:7d:d5:88:87:8a:a6:b5:a7:12:58:a3:8a:f2:b6:b1
        Signature Algorithm: sha256WithRSAEncryption
        Issuer: CN=1852992
        Validity
            Not Before: Dec 19 15:35:03 2024 GMT
            Not After : Mar 24 15:35:03 2027 GMT
        Subject: CN=client_2
        Subject Public Key Info:
            Public Key Algorithm: rsaEncryption
                Public-Key: (2048 bit)
                Modulus:
                    00:ba:ef:9e:da:2e:19:f1:9a:9c:0e:c1:59:4e:a8:
                    be:19:72:2d:3d:d5:fc:ab:a5:6d:28:39:b3:2e:f9:
                    19:6d:87:19:72:6b:40:56:86:32:3a:36:b3:32:0b:
                    f2:b5:bf:49:d2:18:c8:cd:14:27:9d:ad:2f:7c:22:
                    12:81:95:65:dd:2f:e4:5a:3c:cc:9d:4f:a9:63:79:
                    3e:6d:ec:da:85:2b:9e:49:bd:9c:32:3a:10:79:24:
                    02:09:4d:1b:08:33:8e:ae:f5:9e:d0:86:10:3a:f3:
                    a9:41:36:3d:f3:68:0b:1a:da:ac:ae:ef:a7:45:1c:
                    86:63:9c:43:08:2c:14:2f:95:77:e2:88:56:16:6f:
                    5f:62:cf:49:70:60:33:0f:f6:30:16:63:47:78:af:
                    08:a2:6a:69:13:fd:dd:a2:3e:62:a7:70:fd:d4:3b:
                    59:91:f6:fa:be:b8:de:75:dc:53:04:55:54:1b:64:
                    75:d7:79:fd:32:65:d0:b6:41:3a:ec:06:0f:ed:cb:
                    82:0c:9a:30:a4:cd:3d:12:81:8a:9d:c8:6e:28:b1:
                    ac:16:2f:0b:ee:1c:80:63:04:56:52:5a:24:45:31:
                    b4:b9:e2:fb:5b:4a:25:34:f3:68:6b:65:a5:4d:c3:
                    b1:dd:4d:50:e2:54:c3:46:93:e5:d7:4e:a9:62:f9:
                    f9:17
                Exponent: 65537 (0x10001)
        X509v3 extensions:
            X509v3 Basic Constraints: 
                CA:FALSE
            X509v3 Subject Key Identifier: 
                D4:9B:F2:A8:CA:0D:11:4F:8B:FD:E6:B7:93:3F:FB:B5:22:6C:0C:7E
            X509v3 Authority Key Identifier: 
                keyid:F8:8C:9D:9B:80:8A:45:24:4A:BF:77:42:7F:75:2F:91:D3:0A:A7:49
                DirName:/CN=1852992
                serial:61:36:07:C7:93:16:B1:C4:71:E6:CC:58:3C:CA:61:69:15:00:00:B0
            X509v3 Key Usage: 
                Digital Signature, Key Encipherment
            X509v3 Extended Key Usage: 
                TLS Web Client Authentication
    Signature Algorithm: sha256WithRSAEncryption
    Signature Value:
        48:01:85:b2:6a:ce:94:4a:ae:0c:f8:30:58:7a:b9:58:67:1f:
        f0:e2:0d:4c:d7:84:0d:97:ee:9e:58:93:ff:f2:5e:5d:fb:c7:
        34:b1:2f:ad:fc:70:fd:48:e4:63:41:15:99:13:02:8d:44:6e:
        80:bf:d5:89:6f:34:35:0a:cc:41:69:a2:bb:51:43:05:14:bf:
        e3:98:8b:a1:f9:4c:16:0d:ba:20:f7:2a:0f:aa:fe:54:d9:83:
        51:94:4c:32:24:d5:1f:d4:f1:29:de:df:f3:ac:a6:4f:53:5c:
        3d:9c:8e:39:68:3b:15:c8:24:87:a8:48:5f:91:d9:35:e1:13:
        40:80:84:e6:ac:62:ff:4f:58:54:42:0f:17:d0:23:18:42:a3:
        4f:d9:19:92:f6:9f:8c:21:a3:85:f1:54:00:8c:db:0b:33:84:
        b4:da:24:da:14:b1:e5:7f:ea:43:7a:eb:bb:d5:f5:1a:2f:42:
        6e:ad:51:80:5a:be:19:59:5d:30:d0:13:b7:50:44:3e:a6:b6:
        b0:19:0b:56:5b:71:25:6c:27:78:b4:8f:37:ae:98:65:0f:d0:
        e3:bb:c0:a4:14:1a:dd:86:89:30:4d:74:0a:a1:7e:22:21:3c:
        bf:cc:82:ff:0b:45:5d:a7:ff:0d:d2:a3:20:f0:2c:b0:8d:9b:
        0d:82:3e:53
-----BEGIN CERTIFICATE-----
MIIDTzCCAjegAwIBAgIRAJZ91YiHiqa1pxJYo4rytrEwDQYJKoZIhvcNAQELBQAw
EjEQMA4GA1UEAwwHMTg1Mjk5MjAeFw0yNDEyMTkxNTM1MDNaFw0yNzAzMjQxNTM1
MDNaMBMxETAPBgNVBAMMCGNsaWVudF8yMIIBIjANBgkqhkiG9w0BAQEFAAOCAQ8A
MIIBCgKCAQEAuu+e2i4Z8ZqcDsFZTqi+GXItPdX8q6VtKDmzLvkZbYcZcmtAVoYy
OjazMgvytb9J0hjIzRQnna0vfCISgZVl3S/kWjzMnU+pY3k+bezahSueSb2cMjoQ
eSQCCU0bCDOOrvWe0IYQOvOpQTY982gLGtqsru+nRRyGY5xDCCwUL5V34ohWFm9f
Ys9JcGAzD/YwFmNHeK8IomppE/3doj5ip3D91DtZkfb6vrjeddxTBFVUG2R113n9
MmXQtkE67AYP7cuCDJowpM09EoGKnchuKLGsFi8L7hyAYwRWUlokRTG0ueL7W0ol
NPNoa2WlTcOx3U1Q4lTDRpPl106pYvn5FwIDAQABo4GeMIGbMAkGA1UdEwQCMAAw
HQYDVR0OBBYEFNSb8qjKDRFPi/3mt5M/+7UibAx+ME0GA1UdIwRGMESAFPiMnZuA
ikUkSr93Qn91L5HTCqdJoRakFDASMRAwDgYDVQQDDAcxODUyOTkyghRhNgfHkxax
xHHmzFg8ymFpFQAAsDALBgNVHQ8EBAMCBaAwEwYDVR0lBAwwCgYIKwYBBQUHAwIw
DQYJKoZIhvcNAQELBQADggEBAEgBhbJqzpRKrgz4MFh6uVhnH/DiDUzXhA2X7p5Y
k//yXl37xzSxL638cP1I5GNBFZkTAo1EboC/1YlvNDUKzEFportRQwUUv+OYi6H5
TBYNuiD3Kg+q/lTZg1GUTDIk1R/U8Sne3/Ospk9TXD2cjjloOxXIJIeoSF+R2TXh
E0CAhOasYv9PWFRCDxfQIxhCo0/ZGZL2n4who4XxVACM2wszhLTaJNoUseV/6kN6
67vV9RovQm6tUYBavhlZXTDQE7dQRD6mtrAZC1ZbcSVsJ3i0jzeumGUP0OO7wKQU
Gt2GiTBNdAqhfiIhPL/Mgv8LRV2n/w3SoyDwLLCNmw2CPlM=
-----END CERTIFICATE-----
