Certificate:
    Data:
        Version: 3 (0x2)
        Serial Number:
            e3:b1:8a:82:f8:8c:6d:81:54:01:3a:7b:d8:00:27:65
        Signature Algorithm: sha256WithRSAEncryption
        Issuer: CN=1882789
        Validity
            Not Before: Dec 19 21:04:38 2024 GMT
            Not After : Dec  4 21:04:38 2027 GMT
        Subject: CN=client_1
        Subject Public Key Info:
            Public Key Algorithm: rsaEncryption
                RSA Public-Key: (2048 bit)
                Modulus:
                    00:b2:fd:3f:48:9d:88:44:12:74:83:de:38:e7:a0:
                    c6:fa:17:6b:58:ff:37:cc:7d:9a:7f:6a:10:ef:2e:
                    8b:60:db:67:71:c3:40:2d:9b:37:d6:f6:b5:90:ee:
                    6d:d0:65:8f:a0:d6:97:89:b0:2e:90:f5:5c:34:be:
                    89:09:de:e1:c7:ec:7f:a0:8e:ae:dd:6e:c8:04:b0:
                    c4:f2:b6:1f:7b:10:66:ac:a2:de:e1:dc:5b:ef:16:
                    df:87:dd:e7:55:66:f7:79:11:b7:33:e8:7d:a2:2a:
                    96:6c:7a:0c:98:e6:e3:5f:23:a9:f1:e8:57:b9:2e:
                    71:66:1b:d4:07:34:5c:0b:ef:6f:06:74:5f:8d:d9:
                    82:d6:79:53:58:01:c5:22:54:70:00:18:1f:e1:df:
                    64:ad:b2:ff:b0:61:49:9b:d1:eb:58:69:aa:f9:70:
                    82:d3:db:f7:18:56:81:32:6e:92:f4:1c:25:43:fb:
                    fb:a0:1b:d2:10:e6:40:ba:21:36:30:1f:62:87:03:
                    18:28:d9:0c:5e:0a:42:37:3c:e2:47:a5:4c:2c:db:
                    47:21:76:ac:2e:22:9a:fd:d2:6f:89:c6:2f:09:98:
                    99:55:2d:e8:24:c9:7e:ba:fa:6e:c2:20:c0:03:5b:
                    d7:f0:77:13:45:c5:97:c0:e0:40:19:ab:02:ee:52:
                    5f:11
                Exponent: 65537 (0x10001)
        X509v3 extensions:
            X509v3 Basic Constraints: 
                CA:FALSE
            X509v3 Subject Key Identifier: 
                0F:D4:92:FA:96:CB:46:59:63:E2:BA:64:E1:DD:3C:DD:ED:41:87:6D
            X509v3 Authority Key Identifier: 
                keyid:81:4B:78:59:24:B9:A4:47:4D:96:92:E4:D1:0E:37:0A:2B:09:EB:DD
                DirName:/CN=1882789
                serial:32:DC:A5:BE:A3:5B:78:01:42:DB:3F:F1:C6:F1:CA:DF:BF:CD:D9:AE

            X509v3 Extended Key Usage: 
                TLS Web Client Authentication
            X509v3 Key Usage: 
                Digital Signature
    Signature Algorithm: sha256WithRSAEncryption
         1b:f0:96:33:e4:98:d7:43:ae:f7:ba:17:13:4a:9f:ff:7a:b4:
         4a:f4:fc:ab:38:6b:ca:de:81:f2:8f:92:3b:d3:77:d2:7c:ae:
         3d:1d:6a:67:5e:77:dd:33:c6:43:93:f5:71:01:90:55:69:a9:
         c3:ed:db:3b:8f:07:77:39:54:4a:66:63:df:80:f7:82:b3:7f:
         75:94:73:e5:57:41:96:5f:a4:12:fa:13:40:c8:5b:31:eb:3f:
         a2:2f:a7:92:55:26:36:48:44:35:d5:ac:8d:7b:24:15:64:8f:
         d2:43:1b:27:dc:2d:2e:c6:b1:a9:42:b7:a1:d1:7b:ed:ac:fd:
         da:3e:b5:ea:74:a2:16:81:70:fb:d6:80:4b:e9:08:a3:ea:cc:
         d2:f0:5d:69:7d:81:15:bf:89:50:1c:dd:06:f1:4c:71:86:e6:
         8b:98:54:76:a9:aa:b9:47:38:d3:17:e9:a3:f8:7c:b8:31:7b:
         44:b5:69:ed:4a:18:36:66:15:a4:c9:60:5c:dd:8a:89:13:45:
         29:6a:af:52:1b:81:b8:e5:1a:0f:98:ba:15:2a:2c:61:3b:34:
         87:c5:17:72:f6:d4:4a:90:4b:9c:11:9f:f4:b2:0c:fa:62:5e:
         54:15:00:a7:77:e0:d4:3c:fd:89:81:93:f5:91:b9:94:ef:dd:
         e0:76:0f:13
-----BEGIN CERTIFICATE-----
MIIDTzCCAjegAwIBAgIRAOOxioL4jG2BVAE6e9gAJ2UwDQYJKoZIhvcNAQELBQAw
EjEQMA4GA1UEAwwHMTg4Mjc4OTAeFw0yNDEyMTkyMTA0MzhaFw0yNzEyMDQyMTA0
MzhaMBMxETAPBgNVBAMMCGNsaWVudF8xMIIBIjANBgkqhkiG9w0BAQEFAAOCAQ8A
MIIBCgKCAQEAsv0/SJ2IRBJ0g94456DG+hdrWP83zH2af2oQ7y6LYNtnccNALZs3
1va1kO5t0GWPoNaXibAukPVcNL6JCd7hx+x/oI6u3W7IBLDE8rYfexBmrKLe4dxb
7xbfh93nVWb3eRG3M+h9oiqWbHoMmObjXyOp8ehXuS5xZhvUBzRcC+9vBnRfjdmC
1nlTWAHFIlRwABgf4d9krbL/sGFJm9HrWGmq+XCC09v3GFaBMm6S9BwlQ/v7oBvS
EOZAuiE2MB9ihwMYKNkMXgpCNzziR6VMLNtHIXasLiKa/dJvicYvCZiZVS3oJMl+
uvpuwiDAA1vX8HcTRcWXwOBAGasC7lJfEQIDAQABo4GeMIGbMAkGA1UdEwQCMAAw
HQYDVR0OBBYEFA/UkvqWy0ZZY+K6ZOHdPN3tQYdtME0GA1UdIwRGMESAFIFLeFkk
uaRHTZaS5NEONworCevdoRakFDASMRAwDgYDVQQDDAcxODgyNzg5ghQy3KW+o1t4
AULbP/HG8crfv83ZrjATBgNVHSUEDDAKBggrBgEFBQcDAjALBgNVHQ8EBAMCB4Aw
DQYJKoZIhvcNAQELBQADggEBABvwljPkmNdDrve6FxNKn/96tEr0/Ks4a8regfKP
kjvTd9J8rj0damded90zxkOT9XEBkFVpqcPt2zuPB3c5VEpmY9+A94Kzf3WUc+VX
QZZfpBL6E0DIWzHrP6Ivp5JVJjZIRDXVrI17JBVkj9JDGyfcLS7GsalCt6HRe+2s
/do+tep0ohaBcPvWgEvpCKPqzNLwXWl9gRW/iVAc3QbxTHGG5ouYVHapqrlHONMX
6aP4fLgxe0S1ae1KGDZmFaTJYFzdiokTRSlqr1IbgbjlGg+YuhUqLGE7NIfFF3L2
1EqQS5wRn/SyDPpiXlQVAKd34NQ8/YmBk/WRuZTv3eB2DxM=
-----END CERTIFICATE-----
