Certificate:
    Data:
        Version: 3 (0x2)
        Serial Number:
            3c:67:7f:42:31:0f:18:43:47:34:ae:e4:93:c6:ec:c1
        Signature Algorithm: sha256WithRSAEncryption
        Issuer: CN=1882789
        Validity
            Not Before: Dec 19 21:04:46 2024 GMT
            Not After : Dec  4 21:04:46 2027 GMT
        Subject: CN=client_2
        Subject Public Key Info:
            Public Key Algorithm: rsaEncryption
                RSA Public-Key: (2048 bit)
                Modulus:
                    00:b3:6c:83:42:65:9c:97:29:a6:77:ee:74:34:0c:
                    f4:ef:56:24:13:35:2b:92:23:96:93:3a:01:83:af:
                    97:f3:e8:9f:0b:c6:ba:e5:78:01:8e:21:9e:b4:90:
                    6c:04:20:ad:6b:0f:d8:22:37:14:12:4f:8a:ea:89:
                    50:96:38:db:29:d0:ac:2f:65:cc:1d:70:28:9c:f8:
                    ed:02:ae:5e:48:47:03:ff:c2:b9:0b:5a:ed:79:9b:
                    77:98:08:68:98:bd:1d:d3:87:d3:dd:c8:dc:fe:e7:
                    cb:fa:f0:99:25:2e:97:b4:5c:82:0e:25:c6:6f:f0:
                    62:80:19:6f:21:5d:26:d7:d6:f1:46:8b:32:09:96:
                    15:88:7b:90:f7:51:1d:55:88:2c:6c:50:5f:96:22:
                    7d:83:71:5f:0b:52:47:da:80:07:73:a9:9e:05:93:
                    ab:f1:cc:6b:fd:da:02:b2:ed:15:96:2e:6e:93:ab:
                    65:fb:35:5a:68:a3:69:dc:98:8c:f9:57:0a:fe:81:
                    88:08:de:36:d4:e2:f0:3c:9f:89:04:a7:4f:c3:ea:
                    bf:55:8e:b1:0c:f1:cb:9b:dc:6d:43:38:97:6a:7e:
                    08:9d:c6:be:8d:9b:dc:63:da:a9:e0:e7:53:df:6f:
                    d1:f8:a7:6d:e8:c5:13:51:08:94:d3:fa:5d:44:96:
                    0c:23
                Exponent: 65537 (0x10001)
        X509v3 extensions:
            X509v3 Basic Constraints: 
                CA:FALSE
            X509v3 Subject Key Identifier: 
                7F:4F:2C:8B:B4:9B:19:CF:98:2B:BE:16:4C:BC:46:C3:56:20:32:C7
            X509v3 Authority Key Identifier: 
                keyid:81:4B:78:59:24:B9:A4:47:4D:96:92:E4:D1:0E:37:0A:2B:09:EB:DD
                DirName:/CN=1882789
                serial:32:DC:A5:BE:A3:5B:78:01:42:DB:3F:F1:C6:F1:CA:DF:BF:CD:D9:AE

            X509v3 Extended Key Usage: 
                TLS Web Client Authentication
            X509v3 Key Usage: 
                Digital Signature
    Signature Algorithm: sha256WithRSAEncryption
         1e:51:29:c7:33:b8:ff:b6:7b:98:74:d0:3a:f0:aa:89:6b:51:
         cd:a6:02:17:b3:7e:bd:c6:1e:64:e0:cc:4e:77:61:db:55:db:
         2c:e8:63:5e:40:d4:63:dd:89:77:2f:23:f0:29:65:6e:4a:8a:
         04:12:f5:55:ec:4b:64:61:87:83:b7:15:39:7a:f4:36:05:f4:
         84:1b:a6:9d:8f:18:46:84:ce:ca:5a:be:cc:77:64:f6:f4:f8:
         75:e1:81:b3:07:c1:d4:b3:c0:ae:74:81:14:e1:11:21:80:8b:
         83:c8:9e:2a:72:bb:3b:aa:50:03:1c:f4:61:83:bd:53:7c:84:
         49:0a:f1:42:e5:c9:0a:33:67:62:e4:f9:65:8e:71:81:07:42:
         dc:1b:1c:bf:80:60:e4:80:6b:75:f8:e2:29:24:12:9e:74:6e:
         32:70:6a:fd:ba:04:27:c0:56:4c:9d:f0:b7:30:e0:1c:b9:81:
         12:b4:a2:c5:91:55:a3:9c:ec:0e:58:42:99:b2:4c:3e:0e:38:
         51:b9:51:e9:5c:a4:d8:49:96:1d:77:a0:f9:90:d2:04:03:cc:
         d7:09:2a:39:48:5f:91:ab:ae:b5:df:89:94:07:af:a5:e1:10:
         70:c5:d3:c5:fd:d8:1b:01:c1:29:d7:cf:ba:4a:8f:00:b7:2e:
         ee:fa:e4:46
-----BEGIN CERTIFICATE-----
MIIDTjCCAjagAwIBAgIQPGd/QjEPGENHNK7kk8bswTANBgkqhkiG9w0BAQsFADAS
MRAwDgYDVQQDDAcxODgyNzg5MB4XDTI0MTIxOTIxMDQ0NloXDTI3MTIwNDIxMDQ0
NlowEzERMA8GA1UEAwwIY2xpZW50XzIwggEiMA0GCSqGSIb3DQEBAQUAA4IBDwAw
ggEKAoIBAQCzbINCZZyXKaZ37nQ0DPTvViQTNSuSI5aTOgGDr5fz6J8LxrrleAGO
IZ60kGwEIK1rD9giNxQST4rqiVCWONsp0KwvZcwdcCic+O0Crl5IRwP/wrkLWu15
m3eYCGiYvR3Th9PdyNz+58v68JklLpe0XIIOJcZv8GKAGW8hXSbX1vFGizIJlhWI
e5D3UR1ViCxsUF+WIn2DcV8LUkfagAdzqZ4Fk6vxzGv92gKy7RWWLm6Tq2X7NVpo
o2ncmIz5Vwr+gYgI3jbU4vA8n4kEp0/D6r9VjrEM8cub3G1DOJdqfgidxr6Nm9xj
2qng51Pfb9H4p23oxRNRCJTT+l1ElgwjAgMBAAGjgZ4wgZswCQYDVR0TBAIwADAd
BgNVHQ4EFgQUf08si7SbGc+YK74WTLxGw1YgMscwTQYDVR0jBEYwRIAUgUt4WSS5
pEdNlpLk0Q43CisJ692hFqQUMBIxEDAOBgNVBAMMBzE4ODI3ODmCFDLcpb6jW3gB
Qts/8cbxyt+/zdmuMBMGA1UdJQQMMAoGCCsGAQUFBwMCMAsGA1UdDwQEAwIHgDAN
BgkqhkiG9w0BAQsFAAOCAQEAHlEpxzO4/7Z7mHTQOvCqiWtRzaYCF7N+vcYeZODM
Tndh21XbLOhjXkDUY92Jdy8j8CllbkqKBBL1VexLZGGHg7cVOXr0NgX0hBumnY8Y
RoTOylq+zHdk9vT4deGBswfB1LPArnSBFOERIYCLg8ieKnK7O6pQAxz0YYO9U3yE
SQrxQuXJCjNnYuT5ZY5xgQdC3Bscv4Bg5IBrdfjiKSQSnnRuMnBq/boEJ8BWTJ3w
tzDgHLmBErSixZFVo5zsDlhCmbJMPg44UblR6Vyk2EmWHXeg+ZDSBAPM1wkqOUhf
kauutd+JlAevpeEQcMXTxf3YGwHBKdfPukqPALcu7vrkRg==
-----END CERTIFICATE-----
